target datalayout = "e-m:e-p270:32:32-p271:32:32-p272:64:64-i64:64-i128:128-f80:128-n8:16:32:64-S128"
target triple = "x86_64-pc-linux-gnu"

%struct.Type_ = type { i32, ptr, ptr, ptr, %union.anon.85, ptr, ptr, %union.anon.87 }
%union.anon.85 = type { ptr }
%union.anon.87 = type { %struct.TypeFunction }
%struct.TypeFunction = type { ptr, ptr, ptr }
%struct.Decl_ = type { ptr, ptr, %union.SourceSpan, i64, %union.anon.5, i32, %union.anon.6, i64, ptr, ptr, ptr, %union.anon.7 }
%union.SourceSpan = type { i64 }
%union.anon.5 = type { ptr }
%union.anon.6 = type { i16 }
%union.anon.7 = type { %struct.FuncDecl }
%struct.FuncDecl = type { i32, [4 x i8], %struct.Signature_, i32, i32, %union.anon.14 }
%struct.Signature_ = type <{ %struct.CalleeAttributes, i16, i8, i32, i32, [4 x i8], ptr }>
%struct.CalleeAttributes = type { i8 }
%union.anon.14 = type { %struct.anon.15 }
%struct.anon.15 = type { i16, %union.anon.16 }
%union.anon.16 = type { ptr }
%struct.Regs = type { i32, i32 }

@type_bool = external global ptr, align 8
@type_long = external global ptr, align 8
@type_void = external global ptr, align 8

; Function Attrs: nounwind uwtable
define internal zeroext i1 @is_power_of_two(i64 noundef %0) #0 {
  %2 = alloca i64, align 8
  store i64 %0, ptr %2, align 8
  %3 = load i64, ptr %2, align 8
  %4 = icmp ne i64 %3, 0
  br i1 %4, label %5, label %11

5:                                                ; preds = %1
  %6 = load i64, ptr %2, align 8
  %7 = load i64, ptr %2, align 8
  %8 = sub i64 %7, 1
  %9 = and i64 %6, %8
  %10 = icmp eq i64 %9, 0
  br label %11

11:                                               ; preds = %5, %1
  %12 = phi i1 [ false, %1 ], [ %10, %5 ]
  ret i1 %12
}

; Function Attrs: nounwind uwtable
define dso_local ptr @win64_classify(ptr noundef %0, ptr noundef %1, i1 noundef zeroext %2, i1 noundef zeroext %3) #0 {
  %5 = alloca i32, align 4
  %6 = alloca i32, align 4
  %7 = alloca i32, align 4
  %8 = alloca ptr, align 8
  %9 = alloca i32, align 4
  %10 = alloca ptr, align 8
  %11 = alloca ptr, align 8
  %12 = alloca ptr, align 8
  %13 = alloca ptr, align 8
  %14 = alloca i8, align 1
  %15 = alloca i8, align 1
  %16 = alloca ptr, align 8
  %17 = alloca i32, align 4
  %18 = alloca i64, align 8
  store ptr %0, ptr %12, align 8
  store ptr %1, ptr %13, align 8
  %19 = zext i1 %2 to i8
  store i8 %19, ptr %14, align 1
  %20 = zext i1 %3 to i8
  store i8 %20, ptr %15, align 1
  %21 = load ptr, ptr %13, align 8
  store ptr %21, ptr %10, align 8
  %22 = load ptr, ptr %10, align 8
  %23 = getelementptr inbounds %struct.Type_, ptr %22, i32 0, i32 1
  %24 = load ptr, ptr %23, align 8
  %25 = load ptr, ptr @type_void, align 8
  %26 = icmp eq ptr %24, %25
  br i1 %26, label %27, label %29

27:                                               ; preds = %4
  %28 = call ptr @abi_arg_ignore()
  store ptr %28, ptr %11, align 8
  br label %181

29:                                               ; preds = %4
  %30 = load ptr, ptr %13, align 8
  %31 = call ptr @type_lowering(ptr noundef %30)
  store ptr %31, ptr %13, align 8
  %32 = load ptr, ptr %13, align 8
  store ptr %32, ptr %8, align 8
  %33 = load ptr, ptr %8, align 8
  %34 = load i32, ptr %33, align 8
  store i32 %34, ptr %9, align 4
  %35 = load i32, ptr %9, align 4
  %36 = icmp eq i32 %35, 31
  br i1 %36, label %37, label %42

37:                                               ; preds = %29
  %38 = load ptr, ptr %8, align 8
  %39 = getelementptr inbounds %struct.Type_, ptr %38, i32 0, i32 1
  %40 = load ptr, ptr %39, align 8
  %41 = load i32, ptr %40, align 8
  store i32 %41, ptr %9, align 4
  br label %42

42:                                               ; preds = %37, %29
  %43 = load i32, ptr %9, align 4
  %44 = icmp eq i32 %43, 27
  br i1 %44, label %48, label %45

45:                                               ; preds = %42
  %46 = load i32, ptr %9, align 4
  %47 = icmp eq i32 %46, 26
  br label %48

48:                                               ; preds = %45, %42
  %49 = phi i1 [ true, %42 ], [ %47, %45 ]
  br i1 %49, label %50, label %62

50:                                               ; preds = %48
  %51 = load ptr, ptr %13, align 8
  %52 = getelementptr inbounds %struct.Type_, ptr %51, i32 0, i32 7
  %53 = load ptr, ptr %52, align 8
  %54 = getelementptr inbounds %struct.Decl_, ptr %53, i32 0, i32 3
  %55 = load i64, ptr %54, align 8
  %56 = lshr i64 %55, 16
  %57 = and i64 %56, 1
  %58 = trunc i64 %57 to i1
  br i1 %58, label %59, label %62

59:                                               ; preds = %50
  %60 = load ptr, ptr %13, align 8
  %61 = call ptr @abi_arg_new_indirect_not_by_val(ptr noundef %60)
  store ptr %61, ptr %11, align 8
  br label %181

62:                                               ; preds = %50, %48
  store ptr null, ptr %16, align 8
  store i32 0, ptr %17, align 4
  %63 = load i8, ptr %15, align 1
  %64 = trunc i8 %63 to i1
  br i1 %64, label %65, label %123

65:                                               ; preds = %62
  %66 = load ptr, ptr %13, align 8
  %67 = call zeroext i1 @type_is_homogenous_aggregate(ptr noundef %66, ptr noundef %16, ptr noundef %17)
  br i1 %67, label %68, label %123

68:                                               ; preds = %65
  %69 = load ptr, ptr %12, align 8
  %70 = getelementptr inbounds %struct.Regs, ptr %69, i32 0, i32 1
  %71 = load i32, ptr %70, align 4
  %72 = load i32, ptr %17, align 4
  %73 = icmp uge i32 %71, %72
  br i1 %73, label %74, label %100

74:                                               ; preds = %68
  %75 = load i8, ptr %14, align 1
  %76 = trunc i8 %75 to i1
  br i1 %76, label %93, label %77

77:                                               ; preds = %74
  %78 = load ptr, ptr %13, align 8
  %79 = getelementptr inbounds %struct.Type_, ptr %78, i32 0, i32 0
  %80 = load i32, ptr %79, align 8
  store i32 %80, ptr %5, align 4
  %81 = load i32, ptr %5, align 4
  %82 = icmp uge i32 %81, 1
  br i1 %82, label %83, label %86

83:                                               ; preds = %77
  %84 = load i32, ptr %5, align 4
  %85 = icmp ule i32 %84, 22
  br label %86

86:                                               ; preds = %83, %77
  %87 = phi i1 [ false, %77 ], [ %85, %83 ]
  br i1 %87, label %93, label %88

88:                                               ; preds = %86
  %89 = load ptr, ptr %13, align 8
  %90 = getelementptr inbounds %struct.Type_, ptr %89, i32 0, i32 0
  %91 = load i32, ptr %90, align 8
  %92 = icmp eq i32 %91, 37
  br i1 %92, label %93, label %100

93:                                               ; preds = %88, %86, %74
  %94 = load i32, ptr %17, align 4
  %95 = load ptr, ptr %12, align 8
  %96 = getelementptr inbounds %struct.Regs, ptr %95, i32 0, i32 1
  %97 = load i32, ptr %96, align 4
  %98 = sub i32 %97, %94
  store i32 %98, ptr %96, align 4
  %99 = call ptr @abi_arg_new_direct()
  store ptr %99, ptr %11, align 8
  br label %181

100:                                              ; preds = %88, %68
  %101 = load i8, ptr %14, align 1
  %102 = trunc i8 %101 to i1
  br i1 %102, label %119, label %103

103:                                              ; preds = %100
  %104 = load ptr, ptr %13, align 8
  %105 = getelementptr inbounds %struct.Type_, ptr %104, i32 0, i32 0
  %106 = load i32, ptr %105, align 8
  store i32 %106, ptr %6, align 4
  %107 = load i32, ptr %6, align 4
  %108 = icmp uge i32 %107, 1
  br i1 %108, label %109, label %112

109:                                              ; preds = %103
  %110 = load i32, ptr %6, align 4
  %111 = icmp ule i32 %110, 22
  br label %112

112:                                              ; preds = %109, %103
  %113 = phi i1 [ false, %103 ], [ %111, %109 ]
  br i1 %113, label %122, label %114

114:                                              ; preds = %112
  %115 = load ptr, ptr %13, align 8
  %116 = getelementptr inbounds %struct.Type_, ptr %115, i32 0, i32 0
  %117 = load i32, ptr %116, align 8
  %118 = icmp ne i32 %117, 37
  br i1 %118, label %119, label %122

119:                                              ; preds = %114, %100
  %120 = load ptr, ptr %13, align 8
  %121 = call ptr @abi_arg_new_indirect_not_by_val(ptr noundef %120)
  store ptr %121, ptr %11, align 8
  br label %181

122:                                              ; preds = %114, %112
  br label %123

123:                                              ; preds = %122, %65, %62
  %124 = load ptr, ptr %13, align 8
  %125 = call i32 @type_size(ptr noundef %124)
  %126 = zext i32 %125 to i64
  store i64 %126, ptr %18, align 8
  %127 = load ptr, ptr %13, align 8
  %128 = call zeroext i1 @type_is_abi_aggregate(ptr noundef %127)
  br i1 %128, label %129, label %143

129:                                              ; preds = %123
  %130 = load i64, ptr %18, align 8
  %131 = icmp ugt i64 %130, 8
  br i1 %131, label %135, label %132

132:                                              ; preds = %129
  %133 = load i64, ptr %18, align 8
  %134 = call zeroext i1 @is_power_of_two(i64 noundef %133)
  br i1 %134, label %138, label %135

135:                                              ; preds = %132, %129
  %136 = load ptr, ptr %13, align 8
  %137 = call ptr @abi_arg_new_indirect_not_by_val(ptr noundef %136)
  store ptr %137, ptr %11, align 8
  br label %181

138:                                              ; preds = %132
  %139 = load i64, ptr %18, align 8
  %140 = mul i64 %139, 8
  %141 = call ptr @type_int_unsigned_by_bitsize(i64 noundef %140)
  %142 = call ptr @abi_arg_new_direct_coerce_type(ptr noundef %141)
  store ptr %142, ptr %11, align 8
  br label %181

143:                                              ; preds = %123
  %144 = load ptr, ptr %13, align 8
  %145 = getelementptr inbounds %struct.Type_, ptr %144, i32 0, i32 0
  %146 = load i32, ptr %145, align 8
  store i32 %146, ptr %7, align 4
  %147 = load i32, ptr %7, align 4
  %148 = icmp uge i32 %147, 1
  br i1 %148, label %149, label %152

149:                                              ; preds = %143
  %150 = load i32, ptr %7, align 4
  %151 = icmp ule i32 %150, 22
  br label %152

152:                                              ; preds = %149, %143
  %153 = phi i1 [ false, %143 ], [ %151, %149 ]
  br i1 %153, label %154, label %173

154:                                              ; preds = %152
  %155 = load ptr, ptr %13, align 8
  %156 = getelementptr inbounds %struct.Type_, ptr %155, i32 0, i32 0
  %157 = load i32, ptr %156, align 8
  switch i32 %157, label %171 [
    i32 2, label %158
    i32 12, label %161
    i32 7, label %161
  ]

158:                                              ; preds = %154
  %159 = load ptr, ptr @type_bool, align 8
  %160 = call ptr @abi_arg_new_direct_int_ext(ptr noundef %159)
  store ptr %160, ptr %11, align 8
  br label %181

161:                                              ; preds = %154, %154
  %162 = load i8, ptr %14, align 1
  %163 = trunc i8 %162 to i1
  br i1 %163, label %167, label %164

164:                                              ; preds = %161
  %165 = load ptr, ptr %13, align 8
  %166 = call ptr @abi_arg_new_indirect_not_by_val(ptr noundef %165)
  store ptr %166, ptr %11, align 8
  br label %181

167:                                              ; preds = %161
  %168 = load ptr, ptr @type_long, align 8
  %169 = call ptr @type_get_vector(ptr noundef %168, i32 noundef 2)
  %170 = call ptr @abi_arg_new_direct_coerce_type(ptr noundef %169)
  store ptr %170, ptr %11, align 8
  br label %181

171:                                              ; preds = %154
  br label %172

172:                                              ; preds = %171
  br label %173

173:                                              ; preds = %172, %152
  %174 = load i64, ptr %18, align 8
  %175 = icmp ugt i64 %174, 8
  br i1 %175, label %176, label %179

176:                                              ; preds = %173
  %177 = load ptr, ptr %13, align 8
  %178 = call ptr @abi_arg_new_indirect_not_by_val(ptr noundef %177)
  store ptr %178, ptr %11, align 8
  br label %181

179:                                              ; preds = %173
  %180 = call ptr @abi_arg_new_direct()
  store ptr %180, ptr %11, align 8
  br label %181

181:                                              ; preds = %179, %176, %167, %164, %158, %138, %135, %119, %93, %59, %27
  %182 = load ptr, ptr %11, align 8
  ret ptr %182
}