; Function Attrs: nounwind uwtable
define dso_local ptr @win64_classify(ptr nocapture noundef %0, ptr nocapture noundef readonly %1, i1 noundef zeroext %2, i1 noundef zeroext %3) local_unnamed_addr #0 {
  %5 = alloca ptr, align 8
  %6 = alloca i32, align 4
  %7 = getelementptr inbounds i8, ptr %1, i64 8
  %8 = load ptr, ptr %7, align 8
  %9 = load ptr, ptr @type_void, align 8
  %10 = icmp eq ptr %8, %9
  br i1 %10, label %11, label %13

11:                                               ; preds = %4
  %12 = tail call ptr @abi_arg_ignore() #5
  br label %87

13:                                               ; preds = %4
  %14 = tail call fastcc ptr @type_lowering(ptr noundef nonnull %1)
  %15 = load i32, ptr %14, align 8
  %16 = icmp eq i32 %15, 31
  br i1 %16, label %17, label %21

17:                                               ; preds = %13
  %18 = getelementptr inbounds i8, ptr %14, i64 8
  %19 = load ptr, ptr %18, align 8
  %20 = load i32, ptr %19, align 8
  br label %21

21:                                               ; preds = %17, %13
  %.0 = phi i32 [ %20, %17 ], [ %15, %13 ]
  %22 = and i32 %.0, -2
  %23 = icmp eq i32 %22, 26
  br i1 %23, label %24, label %32

24:                                               ; preds = %21
  %25 = getelementptr inbounds i8, ptr %14, i64 56
  %26 = load ptr, ptr %25, align 8
  %27 = getelementptr inbounds i8, ptr %26, i64 24
  %28 = load i64, ptr %27, align 8
  %29 = and i64 %28, 65536
  %.not = icmp eq i64 %29, 0
  br i1 %.not, label %32, label %30

30:                                               ; preds = %24
  %31 = tail call ptr @abi_arg_new_indirect_not_by_val(ptr noundef nonnull %14) #5
  br label %87

32:                                               ; preds = %24, %21
  store ptr null, ptr %5, align 8
  store i32 0, ptr %6, align 4
  br i1 %3, label %33, label %53

33:                                               ; preds = %32
  %34 = call zeroext i1 @type_is_homogenous_aggregate(ptr noundef nonnull %14, ptr noundef nonnull %5, ptr noundef nonnull %6) #5
  br i1 %34, label %35, label %53

35:                                               ; preds = %33
  %36 = getelementptr inbounds i8, ptr %0, i64 4
  %37 = load i32, ptr %36, align 4
  %38 = load i32, ptr %6, align 4
  %.not44 = icmp ult i32 %37, %38
  br i1 %.not44, label %48, label %39

39:                                               ; preds = %35
  br i1 %2, label %45, label %40

40:                                               ; preds = %39
  %41 = load i32, ptr %14, align 8
  %42 = add i32 %41, -1
  %43 = icmp ult i32 %42, 22
  %44 = icmp eq i32 %41, 37
  %or.cond = or i1 %44, %43
  br i1 %or.cond, label %45, label %.thread.thread

45:                                               ; preds = %40, %39
  %46 = sub i32 %37, %38
  store i32 %46, ptr %36, align 4
  %47 = call ptr @abi_arg_new_direct() #5
  br label %87

48:                                               ; preds = %35
  br i1 %2, label %.thread.thread, label %.thread

.thread:                                          ; preds = %48
  %.pre = load i32, ptr %14, align 8
  %.pre50 = add i32 %.pre, -1
  %49 = icmp ult i32 %.pre50, 22
  %50 = icmp eq i32 %.pre, 37
  %51 = or i1 %50, %49
  br i1 %51, label %53, label %.thread.thread

.thread.thread:                                   ; preds = %40, %.thread, %48
  %52 = call ptr @abi_arg_new_indirect_not_by_val(ptr noundef nonnull %14) #5
  br label %87

53:                                               ; preds = %.thread, %33, %32
  %54 = call i32 @type_size(ptr noundef nonnull %14) #5
  %55 = zext i32 %54 to i64
  %56 = call zeroext i1 @type_is_abi_aggregate(ptr noundef nonnull %14) #5
  br i1 %56, label %57, label %66

57:                                               ; preds = %53
  %58 = add i32 %54, -1
  %or.cond47 = icmp ult i32 %58, 8
  %59 = call i64 @llvm.ctpop.i64(i64 %55), !range !7
  %60 = icmp ult i64 %59, 2
  %or.cond49 = select i1 %or.cond47, i1 %60, i1 false
  br i1 %or.cond49, label %62, label %is_power_of_two.exit.thread

is_power_of_two.exit.thread:                      ; preds = %57
  %61 = call ptr @abi_arg_new_indirect_not_by_val(ptr noundef nonnull %14) #5
  br label %87

62:                                               ; preds = %57
  %63 = shl nuw nsw i64 %55, 3
  %64 = call ptr @type_int_unsigned_by_bitsize(i64 noundef %63) #5
  %65 = call ptr @abi_arg_new_direct_coerce_type(ptr noundef %64) #5
  br label %87

66:                                               ; preds = %53
  %67 = load i32, ptr %14, align 8
  %68 = add i32 %67, -1
  %69 = icmp ult i32 %68, 22
  br i1 %69, label %70, label %81

70:                                               ; preds = %66
  switch i32 %67, label %81 [
    i32 2, label %71
    i32 12, label %74
    i32 7, label %74
  ]

71:                                               ; preds = %70
  %72 = load ptr, ptr @type_bool, align 8
  %73 = call ptr @abi_arg_new_direct_int_ext(ptr noundef %72) #5
  br label %87

74:                                               ; preds = %70, %70
  br i1 %2, label %77, label %75

75:                                               ; preds = %74
  %76 = call ptr @abi_arg_new_indirect_not_by_val(ptr noundef nonnull %14) #5
  br label %87

77:                                               ; preds = %74
  %78 = load ptr, ptr @type_long, align 8
  %79 = call ptr @type_get_vector(ptr noundef %78, i32 noundef 2) #5
  %80 = call ptr @abi_arg_new_direct_coerce_type(ptr noundef %79) #5
  br label %87

81:                                               ; preds = %70, %66
  %82 = icmp ugt i32 %54, 8
  br i1 %82, label %83, label %85

83:                                               ; preds = %81
  %84 = call ptr @abi_arg_new_indirect_not_by_val(ptr noundef nonnull %14) #5
  br label %87

85:                                               ; preds = %81
  %86 = call ptr @abi_arg_new_direct() #5
  br label %87

87:                                               ; preds = %85, %83, %77, %75, %71, %62, %is_power_of_two.exit.thread, %.thread.thread, %45, %30, %11
  %.040 = phi ptr [ %12, %11 ], [ %31, %30 ], [ %47, %45 ], [ %52, %.thread.thread ], [ %61, %is_power_of_two.exit.thread ], [ %65, %62 ], [ %84, %83 ], [ %86, %85 ], [ %80, %77 ], [ %76, %75 ], [ %73, %71 ]
  ret ptr %.040
}